target datalayout = "e-m:e-p270:32:32-p271:32:32-p272:64:64-i64:64-i128:128-f80:128-n8:16:32:64-S128"
target triple = "x86_64-pc-linux-gnu"

@.str.53 = private unnamed_addr constant [31 x i8] c"../openssl/test/evp_kdf_test.c\00", align 1
@.str.60 = private unnamed_addr constant [7 x i8] c"sha256\00", align 1
@.str.62 = private unnamed_addr constant [7 x i8] c"params\00", align 1
@.str.67 = private unnamed_addr constant [2 x i8] c"0\00", align 1
@.str.81 = private unnamed_addr constant [5 x i8] c"seed\00", align 1
@.str.110 = private unnamed_addr constant [9 x i8] c"TLS1-PRF\00", align 1
@.str.119 = private unnamed_addr constant [45 x i8] c"kctx = get_kdfbyname(OSSL_KDF_NAME_TLS1_PRF)\00", align 1
@.str.120 = private unnamed_addr constant [47 x i8] c"EVP_KDF_derive(kctx, out, sizeof(out), params)\00", align 1
@.str.122 = private unnamed_addr constant [1 x i8] zeroinitializer, align 1

; Function Attrs: nounwind uwtable
define internal ptr @get_kdfbyname_libctx(ptr noundef %0, ptr noundef %1) #0 {
  %3 = alloca ptr, align 8
  %4 = alloca ptr, align 8
  %5 = alloca ptr, align 8
  %6 = alloca ptr, align 8
  store ptr %0, ptr %3, align 8, !tbaa !11
  store ptr %1, ptr %4, align 8, !tbaa !18
  call void @llvm.lifetime.start.p0(i64 8, ptr %5) #6
  %7 = load ptr, ptr %3, align 8, !tbaa !11
  %8 = load ptr, ptr %4, align 8, !tbaa !18
  %9 = call ptr @EVP_KDF_fetch(ptr noundef %7, ptr noundef %8, ptr noundef null)
  store ptr %9, ptr %5, align 8, !tbaa !26
  call void @llvm.lifetime.start.p0(i64 8, ptr %6) #6
  %10 = load ptr, ptr %5, align 8, !tbaa !26
  %11 = call ptr @EVP_KDF_CTX_new(ptr noundef %10)
  store ptr %11, ptr %6, align 8, !tbaa !8
  %12 = load ptr, ptr %5, align 8, !tbaa !26
  call void @EVP_KDF_free(ptr noundef %12)
  %13 = load ptr, ptr %6, align 8, !tbaa !8
  call void @llvm.lifetime.end.p0(i64 8, ptr %6) #6
  call void @llvm.lifetime.end.p0(i64 8, ptr %5) #6
  ret ptr %13
}

; Function Attrs: nounwind uwtable
define internal ptr @get_kdfbyname(ptr noundef %0) #0 {
  %2 = alloca ptr, align 8
  store ptr %0, ptr %2, align 8, !tbaa !18
  %3 = load ptr, ptr %2, align 8, !tbaa !18
  %4 = call ptr @get_kdfbyname_libctx(ptr noundef null, ptr noundef %3)
  ret ptr %4
}

; Function Attrs: nounwind uwtable
define internal i32 @test_kdf_tls1_prf_empty_secret() #0 {
  %1 = alloca i32, align 4
  %2 = alloca ptr, align 8
  %3 = alloca [16 x i8], align 16
  %4 = alloca ptr, align 8
  call void @llvm.lifetime.start.p0(i64 4, ptr %1) #6
  call void @llvm.lifetime.start.p0(i64 8, ptr %2) #6
  store ptr null, ptr %2, align 8, !tbaa !8
  call void @llvm.lifetime.start.p0(i64 16, ptr %3) #6
  call void @llvm.lifetime.start.p0(i64 8, ptr %4) #6
  %5 = call ptr @construct_tls1_prf_params(ptr noundef @.str.60, ptr noundef @.str.122, ptr noundef @.str.81)
  store ptr %5, ptr %4, align 8, !tbaa !13
  %6 = load ptr, ptr %4, align 8, !tbaa !13
  %7 = call i32 @test_ptr(ptr noundef @.str.53, i32 noundef 128, ptr noundef @.str.62, ptr noundef %6)
  %8 = icmp ne i32 %7, 0
  br i1 %8, label %9, label %20

9:                                                ; preds = %0
  %10 = call ptr @get_kdfbyname(ptr noundef @.str.110)
  store ptr %10, ptr %2, align 8, !tbaa !8
  %11 = call i32 @test_ptr(ptr noundef @.str.53, i32 noundef 129, ptr noundef @.str.119, ptr noundef %10)
  %12 = icmp ne i32 %11, 0
  br i1 %12, label %13, label %20

13:                                               ; preds = %9
  %14 = load ptr, ptr %2, align 8, !tbaa !8
  %15 = getelementptr inbounds [16 x i8], ptr %3, i64 0, i64 0
  %16 = load ptr, ptr %4, align 8, !tbaa !13
  %17 = call i32 @EVP_KDF_derive(ptr noundef %14, ptr noundef %15, i64 noundef 16, ptr noundef %16)
  %18 = call i32 @test_int_gt(ptr noundef @.str.53, i32 noundef 130, ptr noundef @.str.120, ptr noundef @.str.67, i32 noundef %17, i32 noundef 0)
  %19 = icmp ne i32 %18, 0
  br label %20

20:                                               ; preds = %13, %9, %0
  %21 = phi i1 [ false, %9 ], [ false, %0 ], [ %19, %13 ]
  %22 = zext i1 %21 to i32
  store i32 %22, ptr %1, align 4, !tbaa !4
  %23 = load ptr, ptr %2, align 8, !tbaa !8
  call void @EVP_KDF_CTX_free(ptr noundef %23)
  %24 = load ptr, ptr %4, align 8, !tbaa !13
  call void @CRYPTO_free(ptr noundef %24, ptr noundef @.str.53, i32 noundef 133)
  %25 = load i32, ptr %1, align 4, !tbaa !4
  call void @llvm.lifetime.end.p0(i64 8, ptr %4) #6
  call void @llvm.lifetime.end.p0(i64 16, ptr %3) #6
  call void @llvm.lifetime.end.p0(i64 8, ptr %2) #6
  call void @llvm.lifetime.end.p0(i64 4, ptr %1) #6
  ret i32 %25
}